; Function Attrs: nounwind uwtable
define ptr @l_Lean_Elab_Structural_IndGroupInfo_numMotives(ptr noundef readonly captures(none) %0) local_unnamed_addr #0 {
  %2 = getelementptr inbounds nuw i8, ptr %0, i64 8
  %3 = load ptr, ptr %2, align 8, !tbaa !11
  %4 = getelementptr i8, ptr %3, i64 8
  %.val = load i64, ptr %4, align 8, !tbaa !13
  %5 = getelementptr inbounds nuw i8, ptr %0, i64 16
  %6 = load ptr, ptr %5, align 8, !tbaa !11
  %7 = ptrtoint ptr %6 to i64
  %8 = and i64 %7, 1
  %.not = icmp eq i64 %8, 0
  br i1 %.not, label %.critedge.i, label %9, !prof !4

9:                                                ; preds = %1
  %10 = and i64 %.val, 9223372036854775807
  %11 = lshr i64 %7, 1
  %12 = add nuw i64 %11, %10
  %13 = icmp sgt i64 %12, -1
  br i1 %13, label %14, label %18, !prof !10

14:                                               ; preds = %9
  %15 = shl nuw i64 %12, 1
  %16 = or disjoint i64 %15, 1
  %17 = inttoptr i64 %16 to ptr
  br label %lean_dec.exit

18:                                               ; preds = %9
  %19 = tail call ptr @lean_big_usize_to_nat(i64 noundef range(i64 0, -1) %12) #4
  br label %lean_dec.exit

.critedge.i:                                      ; preds = %1
  %20 = shl i64 %.val, 1
  %21 = or disjoint i64 %20, 1
  %22 = inttoptr i64 %21 to ptr
  %23 = tail call ptr @lean_nat_big_add(ptr noundef nonnull %22, ptr noundef %6) #4
  br label %lean_dec.exit

lean_dec.exit:                                    ; preds = %.critedge.i, %14, %18
  %.0.i = phi ptr [ %23, %.critedge.i ], [ %17, %14 ], [ %19, %18 ]
  ret ptr %.0.i
}